; Function Attrs: mustprogress uwtable
define hidden void @_ZN3vas2ot7TrackerC2EifNS_11ColorFormatEb(ptr noundef nonnull align 8 dereferenceable(72) %0, i32 noundef %1, float noundef %2, i32 noundef %3, i1 noundef zeroext %4) unnamed_addr #0 align 2 {
  store ptr getelementptr inbounds inrange(-16, 24) (i8, ptr @_ZTVN3vas2ot7TrackerE, i64 16), ptr %0, align 8
  %6 = getelementptr inbounds i8, ptr %0, i64 8
  store i32 %1, ptr %6, align 8
  %7 = getelementptr inbounds i8, ptr %0, i64 12
  store i32 1, ptr %7, align 4
  %8 = getelementptr inbounds i8, ptr %0, i64 16
  store i32 0, ptr %8, align 8
  %9 = getelementptr inbounds i8, ptr %0, i64 20
  store float %2, ptr %9, align 4
  %10 = getelementptr inbounds i8, ptr %0, i64 24
  store i32 %3, ptr %10, align 8
  %11 = getelementptr inbounds i8, ptr %0, i64 32
  tail call void @_ZN3vas2ot17ObjectsAssociatorC1Eb(ptr noundef nonnull align 8 dereferenceable(9) %11, i1 noundef zeroext %4)
  %12 = getelementptr inbounds i8, ptr %0, i64 48
  tail call void @llvm.memset.p0.i64(ptr noundef nonnull align 8 dereferenceable(24) %12, i8 0, i64 24, i1 false)
  ret void
}